; Function Attrs: null_pointer_is_valid sspstrong uwtable
define internal noundef zeroext i16 @de_nas_5gs_mm_relay_key_resp_params(ptr noundef %0, ptr noundef %1, ptr readnone captures(none) %2, i32 noundef %3, i32 noundef %4, ptr readnone captures(none) %5, i32 %6) #0 {
  %8 = load i32, ptr @hf_nas_5gs_mm_relay_key_resp_params_key_knr_prose, align 4
  %9 = tail call ptr @proto_tree_add_item(ptr noundef %1, i32 noundef %8, ptr noundef %0, i32 noundef %3, i32 noundef 32, i32 noundef 0)
  %10 = load i32, ptr @hf_nas_5gs_mm_relay_key_resp_params_nonce_2, align 4
  %11 = tail call ptr @proto_tree_add_item(ptr noundef %1, i32 noundef %10, ptr noundef %0, i32 noundef %3, i32 noundef 16, i32 noundef 0)
  %12 = add i32 %3, 48
  %13 = load i32, ptr @hf_nas_5gs_mm_relay_key_resp_params_cp_pruk_id, align 4
  %14 = add i32 %4, -48
  %15 = tail call ptr @proto_tree_add_item(ptr noundef %1, i32 noundef %13, ptr noundef %0, i32 noundef %12, i32 noundef %14, i32 noundef 0)
  %16 = trunc i32 %4 to i16
  ret i16 %16
}